target datalayout = "e-m:e-p270:32:32-p271:32:32-p272:64:64-i64:64-i128:128-f80:128-n8:16:32:64-S128"
target triple = "x86_64-unknown-linux-gnu"

; Function Attrs: nounwind uwtable
define hidden i64 @bn_add_words(ptr noundef %rp, ptr noundef %ap, ptr noundef %bp, i32 noundef %n) #0 {
entry:
  %retval = alloca i64, align 8
  %rp.addr = alloca ptr, align 8
  %ap.addr = alloca ptr, align 8
  %bp.addr = alloca ptr, align 8
  %n.addr = alloca i32, align 4
  %ret = alloca i64, align 8
  %i = alloca i64, align 8
  store ptr %rp, ptr %rp.addr, align 8
  store ptr %ap, ptr %ap.addr, align 8
  store ptr %bp, ptr %bp.addr, align 8
  store i32 %n, ptr %n.addr, align 4
  store i64 0, ptr %i, align 8
  %0 = load i32, ptr %n.addr, align 4
  %cmp = icmp sle i32 %0, 0
  br i1 %cmp, label %if.then, label %if.end

if.then:                                          ; preds = %entry
  store i64 0, ptr %retval, align 8
  br label %return

if.end:                                           ; preds = %entry
  %1 = load i32, ptr %n.addr, align 4
  %2 = load i64, ptr %i, align 8
  %3 = load ptr, ptr %rp.addr, align 8
  %4 = load ptr, ptr %ap.addr, align 8
  %5 = load ptr, ptr %bp.addr, align 8
  %6 = call { i64, i32, i64 } asm sideeffect "\09subq\09$0,$0\09\09\0A\09jmp\091f\09\09\0A.p2align 4\09\09\09\0A1:\09movq\09($4,$2,8),$0\09\0A\09adcq\09($5,$2,8),$0\09\0A\09movq\09$0,($3,$2,8)\09\0A\09lea\091($2),$2\09\0A\09loop\091b\09\09\0A\09sbbq\09$0,$0\09\09\0A", "=&r,={cx},=r,r,r,r,1,2,~{cc},~{memory},~{dirflag},~{fpsr},~{flags}"(ptr %3, ptr %4, ptr %5, i32 %1, i64 %2) #2, !srcloc !53
  %asmresult = extractvalue { i64, i32, i64 } %6, 0
  %asmresult1 = extractvalue { i64, i32, i64 } %6, 1
  %asmresult2 = extractvalue { i64, i32, i64 } %6, 2
  store i64 %asmresult, ptr %ret, align 8
  store i32 %asmresult1, ptr %n.addr, align 4
  store i64 %asmresult2, ptr %i, align 8
  %7 = load i64, ptr %ret, align 8
  %and = and i64 %7, 1
  store i64 %and, ptr %retval, align 8
  br label %return

return:                                           ; preds = %if.end, %if.then
  %8 = load i64, ptr %retval, align 8
  ret i64 %8
}